(lp1
(lp2
I7
aI0
aI0
aI0
aa(lp3
I38
aI0
aI0
aI1
aa(lp4
I37
aI0
aI0
aI25
aa(lp5
I42
aI0
aI0
aI1
aa(lp6
I0
aI0
aI0
aI0
aa(lp7
I15
aI0
aI0
aI9
aa(lp8
I6
aI0
aI0
aI4
aa(lp9
I0
aI0
aI0
aI0
aa(lp10
I0
aI0
aI0
aI0
aa(lp11
I0
aI0
aI0
aI0
aa(lp12
I0
aI0
aI0
aI0
aa(lp13
I0
aI0
aI0
aI0
aa(lp14
I0
aI0
aI0
aI0
aa(lp15
I0
aI0
aI0
aI0
aa.